; ModuleID = 'bench/cmake/original/cmMSVC60LinkLineComputer.cxx.ll'
source_filename = "bench/cmake/original/cmMSVC60LinkLineComputer.cxx.ll"
target datalayout = "e-m:e-p270:32:32-p271:32:32-p272:64:64-i64:64-i128:128-f80:128-n8:16:32:64-S128"
target triple = "x86_64-pc-linux-gnu"

%"class.cmsys::SystemToolsManager" = type { i8 }
%"class.std::__cxx11::basic_string" = type { %"struct.std::__cxx11::basic_string<char>::_Alloc_hider", i64, %union.anon }
%"struct.std::__cxx11::basic_string<char>::_Alloc_hider" = type { ptr }
%union.anon = type { i64, [8 x i8] }

$_ZN24cmMSVC60LinkLineComputerD2Ev = comdat any

$_ZN24cmMSVC60LinkLineComputerD0Ev = comdat any

@_ZN5cmsysL26SystemToolsManagerInstanceE = internal global %"class.cmsys::SystemToolsManager" zeroinitializer, align 1
@__dso_handle = external hidden global i8
@_ZL18cmPropertySentinalB5cxx11 = internal global %"class.std::__cxx11::basic_string" zeroinitializer, align 8
@_ZTV24cmMSVC60LinkLineComputer = dso_local unnamed_addr constant { [7 x ptr] } { [7 x ptr] [ptr null, ptr @_ZTI24cmMSVC60LinkLineComputer, ptr @_ZN24cmMSVC60LinkLineComputerD2Ev, ptr @_ZN24cmMSVC60LinkLineComputerD0Ev, ptr @_ZNK24cmMSVC60LinkLineComputer22ConvertToLinkReferenceERKNSt7__cxx1112basic_stringIcSt11char_traitsIcESaIcEEE, ptr @_ZN18cmLinkLineComputer20ComputeLinkLibrariesER24cmComputeLinkInformationRKNSt7__cxx1112basic_stringIcSt11char_traitsIcESaIcEEERSt6vectorI2BTIS7_ESaISC_EE, ptr @_ZN18cmLinkLineComputer17GetLinkerLanguageEP17cmGeneratorTargetRKNSt7__cxx1112basic_stringIcSt11char_traitsIcESaIcEEE] }, align 8
@_ZTVN10__cxxabiv120__si_class_type_infoE = external global [0 x ptr]
@_ZTS24cmMSVC60LinkLineComputer = dso_local constant [27 x i8] c"24cmMSVC60LinkLineComputer\00", align 1
@_ZTI18cmLinkLineComputer = external constant ptr
@_ZTI24cmMSVC60LinkLineComputer = dso_local constant { ptr, ptr, ptr } { ptr getelementptr inbounds (ptr, ptr @_ZTVN10__cxxabiv120__si_class_type_infoE, i64 2), ptr @_ZTS24cmMSVC60LinkLineComputer, ptr @_ZTI18cmLinkLineComputer }, align 8
@llvm.global_ctors = appending global [1 x { i32, ptr, ptr }] [{ i32, ptr, ptr } { i32 65535, ptr @_GLOBAL__sub_I_cmMSVC60LinkLineComputer.cxx, ptr null }]

@_ZN24cmMSVC60LinkLineComputerC1EP17cmOutputConverterRK16cmStateDirectory = dso_local unnamed_addr alias void (ptr, ptr, ptr), ptr @_ZN24cmMSVC60LinkLineComputerC2EP17cmOutputConverterRK16cmStateDirectory

declare void @_ZN5cmsys18SystemToolsManagerC1Ev(ptr noundef nonnull align 1 dereferenceable(1)) unnamed_addr #0

; Function Attrs: nounwind
declare void @_ZN5cmsys18SystemToolsManagerD1Ev(ptr noundef nonnull align 1 dereferenceable(1)) unnamed_addr #1

; Function Attrs: nofree nounwind
declare i32 @__cxa_atexit(ptr, ptr, ptr) local_unnamed_addr #2

; Function Attrs: nounwind
declare void @_ZNSt7__cxx1112basic_stringIcSt11char_traitsIcESaIcEEC1Ev(ptr noundef nonnull align 8 dereferenceable(32)) unnamed_addr #1

; Function Attrs: nounwind
declare void @_ZNSt7__cxx1112basic_stringIcSt11char_traitsIcESaIcEED1Ev(ptr noundef nonnull align 8 dereferenceable(32)) unnamed_addr #1

; Function Attrs: mustprogress uwtable
define dso_local void @_ZN24cmMSVC60LinkLineComputerC2EP17cmOutputConverterRK16cmStateDirectory(ptr noundef nonnull align 8 dereferenceable(60) %0, ptr noundef %1, ptr noundef nonnull align 8 dereferenceable(40) %2) unnamed_addr #3 align 2 {
  tail call void @_ZN18cmLinkLineComputerC2EP17cmOutputConverterRK16cmStateDirectory(ptr noundef nonnull align 8 dereferenceable(60) %0, ptr noundef %1, ptr noundef nonnull align 8 dereferenceable(40) %2)
  store ptr getelementptr inbounds ({ [7 x ptr] }, ptr @_ZTV24cmMSVC60LinkLineComputer, i64 0, i32 0, i64 2), ptr %0, align 8
  ret void
}

declare void @_ZN18cmLinkLineComputerC2EP17cmOutputConverterRK16cmStateDirectory(ptr noundef nonnull align 8 dereferenceable(60), ptr noundef, ptr noundef nonnull align 8 dereferenceable(40)) unnamed_addr #0

; Function Attrs: mustprogress uwtable
define dso_local void @_ZNK24cmMSVC60LinkLineComputer22ConvertToLinkReferenceERKNSt7__cxx1112basic_stringIcSt11char_traitsIcESaIcEEE(ptr dead_on_unwind noalias writable sret(%"class.std::__cxx11::basic_string") align 8 %0, ptr noundef nonnull align 8 dereferenceable(60) %1, ptr noundef nonnull align 8 dereferenceable(32) %2) unnamed_addr #3 align 2 {
  tail call void @_ZNK18cmLinkLineComputer22ConvertToLinkReferenceERKNSt7__cxx1112basic_stringIcSt11char_traitsIcESaIcEEE(ptr dead_on_unwind writable sret(%"class.std::__cxx11::basic_string") align 8 %0, ptr noundef nonnull align 8 dereferenceable(60) %1, ptr noundef nonnull align 8 dereferenceable(32) %2)
  ret void
}

declare void @_ZNK18cmLinkLineComputer22ConvertToLinkReferenceERKNSt7__cxx1112basic_stringIcSt11char_traitsIcESaIcEEE(ptr dead_on_unwind writable sret(%"class.std::__cxx11::basic_string") align 8, ptr noundef nonnull align 8 dereferenceable(60), ptr noundef nonnull align 8 dereferenceable(32)) unnamed_addr #0

; Function Attrs: mustprogress nounwind uwtable
define linkonce_odr dso_local void @_ZN24cmMSVC60LinkLineComputerD2Ev(ptr noundef nonnull align 8 dereferenceable(60) %0) unnamed_addr #4 comdat align 2 {
  tail call void @_ZN18cmLinkLineComputerD2Ev(ptr noundef nonnull align 8 dereferenceable(60) %0) #7
  ret void
}

; Function Attrs: mustprogress nounwind uwtable
define linkonce_odr dso_local void @_ZN24cmMSVC60LinkLineComputerD0Ev(ptr noundef nonnull align 8 dereferenceable(60) %0) unnamed_addr #4 comdat align 2 {
  tail call void @_ZN18cmLinkLineComputerD2Ev(ptr noundef nonnull align 8 dereferenceable(60) %0) #7
  tail call void @_ZdlPv(ptr noundef nonnull %0) #8
  ret void
}

declare void @_ZN18cmLinkLineComputer20ComputeLinkLibrariesER24cmComputeLinkInformationRKNSt7__cxx1112basic_stringIcSt11char_traitsIcESaIcEEERSt6vectorI2BTIS7_ESaISC_EE(ptr noundef nonnull align 8 dereferenceable(60), ptr noundef nonnull align 1, ptr noundef nonnull align 8 dereferenceable(32), ptr noundef nonnull align 8 dereferenceable(24)) unnamed_addr #0

declare void @_ZN18cmLinkLineComputer17GetLinkerLanguageEP17cmGeneratorTargetRKNSt7__cxx1112basic_stringIcSt11char_traitsIcESaIcEEE(ptr dead_on_unwind writable sret(%"class.std::__cxx11::basic_string") align 8, ptr noundef nonnull align 8 dereferenceable(60), ptr noundef, ptr noundef nonnull align 8 dereferenceable(32)) unnamed_addr #0

; Function Attrs: nounwind
declare void @_ZN18cmLinkLineComputerD2Ev(ptr noundef nonnull align 8 dereferenceable(60)) unnamed_addr #1

; Function Attrs: nobuiltin nounwind
declare void @_ZdlPv(ptr noundef) local_unnamed_addr #5

; Function Attrs: uwtable
define internal void @_GLOBAL__sub_I_cmMSVC60LinkLineComputer.cxx() #6 section ".text.startup" {
  tail call void @_ZN5cmsys18SystemToolsManagerC1Ev(ptr noundef nonnull align 1 dereferenceable(1) @_ZN5cmsysL26SystemToolsManagerInstanceE)
  %1 = tail call i32 @__cxa_atexit(ptr nonnull @_ZN5cmsys18SystemToolsManagerD1Ev, ptr nonnull @_ZN5cmsysL26SystemToolsManagerInstanceE, ptr nonnull @__dso_handle) #7
  tail call void @_ZNSt7__cxx1112basic_stringIcSt11char_traitsIcESaIcEEC1Ev(ptr noundef nonnull align 8 dereferenceable(32) @_ZL18cmPropertySentinalB5cxx11) #7
  %2 = tail call i32 @__cxa_atexit(ptr nonnull @_ZNSt7__cxx1112basic_stringIcSt11char_traitsIcESaIcEED1Ev, ptr nonnull @_ZL18cmPropertySentinalB5cxx11, ptr nonnull @__dso_handle) #7
  ret void
}


!llvm.module.flags = !{!0, !1, !2, !3, !4}

!0 = !{i32 1, !"wchar_size", i32 4}
!1 = !{i32 8, !"PIC Level", i32 2}
!2 = !{i32 7, !"PIE Level", i32 2}
!3 = !{i32 7, !"uwtable", i32 2}
!4 = !{i32 7, !"frame-pointer", i32 2}
